target datalayout = "e-m:e-p270:32:32-p271:32:32-p272:64:64-i64:64-i128:128-f80:128-n8:16:32:64-S128"
target triple = "x86_64-pc-linux-gnu"

%struct.lxb_html_tree = type { ptr, ptr, ptr, ptr, ptr, ptr, ptr, %struct.lxb_html_tree_pending_table_t, ptr, i8, i8, i8, i8, i8, i8, ptr, ptr, ptr, i32, i64 }
%struct.lxb_html_tree_pending_table_t = type { ptr, i8 }
%struct.lxb_html_document = type { %struct.lxb_dom_document, ptr, ptr, ptr, %struct.lxb_html_document_css_t, i8, ptr, i32, i32 }
%struct.lxb_dom_document = type { %struct.lxb_dom_node, i32, i32, ptr, ptr, ptr, ptr, ptr, ptr, ptr, ptr, ptr, ptr, ptr, ptr, ptr, ptr, ptr, ptr, ptr, i8, i8, i8 }
%struct.lxb_dom_node = type { %struct.lxb_dom_event_target, i64, i64, i64, ptr, ptr, ptr, ptr, ptr, ptr, ptr, i32, i64 }
%struct.lxb_dom_event_target = type { ptr }
%struct.lxb_html_document_css_t = type { ptr, ptr, ptr, ptr, ptr, ptr, ptr, ptr, i64 }
%struct.lxb_html_token_t = type { ptr, ptr, i64, i64, ptr, ptr, ptr, ptr, ptr, i64, i64, i32 }
%struct.lexbor_str_t = type { ptr, i64 }
%struct.lxb_dom_character_data = type { %struct.lxb_dom_node, %struct.lexbor_str_t }
%struct.lxb_dom_comment = type { %struct.lxb_dom_character_data }

; Function Attrs: nounwind uwtable
define internal void @lxb_html_tree_insert_node(ptr noundef %0, ptr noundef %1, i32 noundef %2) #0 {
  %4 = alloca ptr, align 8
  %5 = alloca ptr, align 8
  %6 = alloca i32, align 4
  store ptr %0, ptr %4, align 8
  store ptr %1, ptr %5, align 8
  store i32 %2, ptr %6, align 4
  %7 = load i32, ptr %6, align 4
  %8 = icmp eq i32 %7, 1
  br i1 %8, label %9, label %12

9:                                                ; preds = %3
  %10 = load ptr, ptr %4, align 8
  %11 = load ptr, ptr %5, align 8
  call void @lxb_dom_node_insert_before_wo_events(ptr noundef %10, ptr noundef %11)
  br label %15

12:                                               ; preds = %3
  %13 = load ptr, ptr %4, align 8
  %14 = load ptr, ptr %5, align 8
  call void @lxb_dom_node_insert_child_wo_events(ptr noundef %13, ptr noundef %14)
  br label %15

15:                                               ; preds = %12, %9
  ret void
}

; Function Attrs: nounwind uwtable
define internal ptr @lxb_html_tree_create_node(ptr noundef %0, i64 noundef %1, i64 noundef %2) #0 {
  %4 = alloca ptr, align 8
  %5 = alloca i64, align 8
  %6 = alloca i64, align 8
  store ptr %0, ptr %4, align 8
  store i64 %1, ptr %5, align 8
  store i64 %2, ptr %6, align 8
  %7 = load ptr, ptr %4, align 8
  %8 = getelementptr inbounds %struct.lxb_html_tree, ptr %7, i32 0, i32 1
  %9 = load ptr, ptr %8, align 8
  %10 = load i64, ptr %5, align 8
  %11 = load i64, ptr %6, align 8
  %12 = call ptr @lxb_html_interface_create(ptr noundef %9, i64 noundef %10, i64 noundef %11)
  ret ptr %12
}

; Function Attrs: nounwind uwtable
define hidden ptr @lxb_html_tree_insert_comment(ptr noundef %0, ptr noundef %1, ptr noundef %2) #0 {
  %4 = alloca ptr, align 8
  %5 = alloca ptr, align 8
  %6 = alloca ptr, align 8
  %7 = alloca ptr, align 8
  %8 = alloca ptr, align 8
  %9 = alloca ptr, align 8
  %10 = alloca i32, align 4
  store ptr %0, ptr %5, align 8
  store ptr %1, ptr %6, align 8
  store ptr %2, ptr %7, align 8
  %11 = load ptr, ptr %7, align 8
  %12 = icmp eq ptr %11, null
  br i1 %12, label %13, label %16

13:                                               ; preds = %3
  %14 = load ptr, ptr %5, align 8
  %15 = call ptr @lxb_html_tree_appropriate_place_inserting_node(ptr noundef %14, ptr noundef null, ptr noundef %10)
  store ptr %15, ptr %7, align 8
  br label %17

16:                                               ; preds = %3
  store i32 0, ptr %10, align 4
  br label %17

17:                                               ; preds = %16, %13
  %18 = load ptr, ptr %5, align 8
  %19 = load ptr, ptr %6, align 8
  %20 = getelementptr inbounds %struct.lxb_html_token_t, ptr %19, i32 0, i32 10
  %21 = load i64, ptr %20, align 8
  %22 = load ptr, ptr %7, align 8
  %23 = getelementptr inbounds %struct.lxb_dom_node, ptr %22, i32 0, i32 3
  %24 = load i64, ptr %23, align 8
  %25 = call ptr @lxb_html_tree_create_node(ptr noundef %18, i64 noundef %21, i64 noundef %24)
  store ptr %25, ptr %8, align 8
  %26 = load ptr, ptr %8, align 8
  store ptr %26, ptr %9, align 8
  %27 = load ptr, ptr %9, align 8
  %28 = icmp eq ptr %27, null
  br i1 %28, label %29, label %30

29:                                               ; preds = %17
  store ptr null, ptr %4, align 8
  br label %59

30:                                               ; preds = %17
  %31 = load ptr, ptr %6, align 8
  %32 = getelementptr inbounds %struct.lxb_html_token_t, ptr %31, i32 0, i32 2
  %33 = load i64, ptr %32, align 8
  %34 = load ptr, ptr %8, align 8
  %35 = getelementptr inbounds %struct.lxb_dom_node, ptr %34, i32 0, i32 12
  store i64 %33, ptr %35, align 8
  %36 = load ptr, ptr %6, align 8
  %37 = load ptr, ptr %9, align 8
  %38 = getelementptr inbounds %struct.lxb_dom_comment, ptr %37, i32 0, i32 0
  %39 = getelementptr inbounds %struct.lxb_dom_character_data, ptr %38, i32 0, i32 1
  %40 = load ptr, ptr %5, align 8
  %41 = getelementptr inbounds %struct.lxb_html_tree, ptr %40, i32 0, i32 1
  %42 = load ptr, ptr %41, align 8
  %43 = getelementptr inbounds %struct.lxb_html_document, ptr %42, i32 0, i32 0
  %44 = getelementptr inbounds %struct.lxb_dom_document, ptr %43, i32 0, i32 13
  %45 = load ptr, ptr %44, align 8
  %46 = call i32 @lxb_html_token_make_text(ptr noundef %36, ptr noundef %39, ptr noundef %45)
  %47 = load ptr, ptr %5, align 8
  %48 = getelementptr inbounds %struct.lxb_html_tree, ptr %47, i32 0, i32 18
  store i32 %46, ptr %48, align 8
  %49 = load ptr, ptr %5, align 8
  %50 = getelementptr inbounds %struct.lxb_html_tree, ptr %49, i32 0, i32 18
  %51 = load i32, ptr %50, align 8
  %52 = icmp ne i32 %51, 0
  br i1 %52, label %53, label %54

53:                                               ; preds = %30
  store ptr null, ptr %4, align 8
  br label %59

54:                                               ; preds = %30
  %55 = load ptr, ptr %7, align 8
  %56 = load ptr, ptr %8, align 8
  %57 = load i32, ptr %10, align 4
  call void @lxb_html_tree_insert_node(ptr noundef %55, ptr noundef %56, i32 noundef %57)
  %58 = load ptr, ptr %9, align 8
  store ptr %58, ptr %4, align 8
  br label %59

59:                                               ; preds = %54, %53, %29
  %60 = load ptr, ptr %4, align 8
  ret ptr %60
}