; Function Attrs: nounwind uwtable
define hidden ptr @lxb_html_tree_insert_comment(ptr noundef %0, ptr noundef %1, ptr noundef %2) local_unnamed_addr #0 {
  %4 = alloca i32, align 4
  %5 = icmp eq ptr %2, null
  br i1 %5, label %6, label %8

6:                                                ; preds = %3
  %7 = call ptr @lxb_html_tree_appropriate_place_inserting_node(ptr noundef %0, ptr noundef null, ptr noundef nonnull %4)
  br label %9

8:                                                ; preds = %3
  store i32 0, ptr %4, align 4
  br label %9

9:                                                ; preds = %8, %6
  %.018 = phi ptr [ %7, %6 ], [ %2, %8 ]
  %10 = getelementptr inbounds i8, ptr %1, i64 80
  %11 = load i64, ptr %10, align 8
  %12 = getelementptr inbounds i8, ptr %.018, i64 24
  %13 = load i64, ptr %12, align 8
  %14 = getelementptr i8, ptr %0, i64 8
  %.val = load ptr, ptr %14, align 8
  %15 = tail call ptr @lxb_html_interface_create(ptr noundef %.val, i64 noundef %11, i64 noundef %13) #9
  %16 = icmp eq ptr %15, null
  br i1 %16, label %lxb_html_tree_insert_node.exit, label %17

17:                                               ; preds = %9
  %18 = getelementptr inbounds i8, ptr %1, i64 16
  %19 = load i64, ptr %18, align 8
  %20 = getelementptr inbounds i8, ptr %15, i64 96
  store i64 %19, ptr %20, align 8
  %21 = getelementptr inbounds i8, ptr %15, i64 104
  %22 = load ptr, ptr %14, align 8
  %23 = getelementptr inbounds i8, ptr %22, i64 192
  %24 = load ptr, ptr %23, align 8
  %25 = tail call i32 @lxb_html_token_make_text(ptr noundef nonnull %1, ptr noundef nonnull %21, ptr noundef %24) #9
  %26 = getelementptr inbounds i8, ptr %0, i64 112
  store i32 %25, ptr %26, align 8
  %.not = icmp eq i32 %25, 0
  br i1 %.not, label %27, label %lxb_html_tree_insert_node.exit

27:                                               ; preds = %17
  %28 = load i32, ptr %4, align 4
  %29 = icmp eq i32 %28, 1
  br i1 %29, label %30, label %31

30:                                               ; preds = %27
  tail call void @lxb_dom_node_insert_before_wo_events(ptr noundef nonnull %.018, ptr noundef nonnull %15) #9
  br label %lxb_html_tree_insert_node.exit

31:                                               ; preds = %27
  tail call void @lxb_dom_node_insert_child_wo_events(ptr noundef nonnull %.018, ptr noundef nonnull %15) #9
  br label %lxb_html_tree_insert_node.exit

lxb_html_tree_insert_node.exit:                   ; preds = %31, %30, %17, %9
  %.0 = phi ptr [ null, %9 ], [ null, %17 ], [ %15, %30 ], [ %15, %31 ]
  ret ptr %.0
}